target datalayout = "e-m:e-p270:32:32-p271:32:32-p272:64:64-i64:64-i128:128-f80:128-n8:16:32:64-S128"
target triple = "x86_64-pc-linux-gnu"

%struct.dfvm_value_t = type { i32, %union.anon, i32 }
%union.anon = type { ptr }
%struct._GPtrArray = type { ptr, i32 }
%struct._header_field_info = type { ptr, ptr, i32, i32, ptr, i64, ptr, i32, i32, i32, i32, ptr }
%struct.df_func_def_t = type { ptr, ptr, i32, i32, i32, ptr }

@.str.96 = private unnamed_addr constant [1 x i8] zeroinitializer, align 1
@.str.97 = private unnamed_addr constant [9 x i8] c"FT_BYTES\00", align 1
@.str.98 = private unnamed_addr constant [4 x i8] c"***\00", align 1
@.str.99 = private unnamed_addr constant [6 x i8] c" <%s>\00", align 1

; Function Attrs: nounwind uwtable
define internal ptr @value_type_tostr(ptr noundef %0, i1 noundef zeroext %1) #0 {
  %3 = alloca ptr, align 8
  %4 = alloca ptr, align 8
  %5 = alloca i8, align 1
  %6 = alloca ptr, align 8
  store ptr %0, ptr %4, align 8
  %7 = zext i1 %1 to i8
  store i8 %7, ptr %5, align 1
  %8 = load ptr, ptr %4, align 8
  %9 = icmp ne ptr %8, null
  br i1 %9, label %10, label %13

10:                                               ; preds = %2
  %11 = load i8, ptr %5, align 1
  %12 = trunc i8 %11 to i1
  br i1 %12, label %15, label %13

13:                                               ; preds = %10, %2
  %14 = call noalias ptr @wmem_strdup(ptr noundef null, ptr noundef @.str.96)
  store ptr %14, ptr %3, align 8
  br label %57

15:                                               ; preds = %10
  %16 = load ptr, ptr %4, align 8
  %17 = getelementptr inbounds %struct.dfvm_value_t, ptr %16, i32 0, i32 0
  %18 = load i32, ptr %17, align 8
  switch i32 %18, label %52 [
    i32 2, label %19
    i32 3, label %26
    i32 1, label %27
    i32 8, label %36
  ]

19:                                               ; preds = %15
  %20 = load ptr, ptr %4, align 8
  %21 = getelementptr inbounds %struct.dfvm_value_t, ptr %20, i32 0, i32 1
  %22 = load ptr, ptr %21, align 8
  %23 = getelementptr inbounds %struct._header_field_info, ptr %22, i32 0, i32 2
  %24 = load i32, ptr %23, align 8
  %25 = call ptr @ftype_name(i32 noundef %24)
  store ptr %25, ptr %6, align 8
  br label %54

26:                                               ; preds = %15
  store ptr @.str.97, ptr %6, align 8
  br label %54

27:                                               ; preds = %15
  %28 = load ptr, ptr %4, align 8
  %29 = getelementptr inbounds %struct.dfvm_value_t, ptr %28, i32 0, i32 1
  %30 = load ptr, ptr %29, align 8
  %31 = getelementptr inbounds %struct._GPtrArray, ptr %30, i32 0, i32 0
  %32 = load ptr, ptr %31, align 8
  %33 = getelementptr ptr, ptr %32, i64 0
  %34 = load ptr, ptr %33, align 8
  %35 = call ptr @fvalue_type_name(ptr noundef %34)
  store ptr %35, ptr %6, align 8
  br label %54

36:                                               ; preds = %15
  %37 = load ptr, ptr %4, align 8
  %38 = getelementptr inbounds %struct.dfvm_value_t, ptr %37, i32 0, i32 1
  %39 = load ptr, ptr %38, align 8
  %40 = getelementptr inbounds %struct.df_func_def_t, ptr %39, i32 0, i32 4
  %41 = load i32, ptr %40, align 8
  %42 = icmp ne i32 %41, 0
  br i1 %42, label %43, label %50

43:                                               ; preds = %36
  %44 = load ptr, ptr %4, align 8
  %45 = getelementptr inbounds %struct.dfvm_value_t, ptr %44, i32 0, i32 1
  %46 = load ptr, ptr %45, align 8
  %47 = getelementptr inbounds %struct.df_func_def_t, ptr %46, i32 0, i32 4
  %48 = load i32, ptr %47, align 8
  %49 = call ptr @ftype_name(i32 noundef %48)
  store ptr %49, ptr %6, align 8
  br label %51

50:                                               ; preds = %36
  store ptr @.str.98, ptr %6, align 8
  br label %51

51:                                               ; preds = %50, %43
  br label %54

52:                                               ; preds = %15
  %53 = call noalias ptr @wmem_strdup(ptr noundef null, ptr noundef @.str.96)
  store ptr %53, ptr %3, align 8
  br label %57

54:                                               ; preds = %51, %27, %26, %19
  %55 = load ptr, ptr %6, align 8
  %56 = call noalias ptr (ptr, ptr, ...) @wmem_strdup_printf(ptr noundef null, ptr noundef @.str.99, ptr noundef %55)
  store ptr %56, ptr %3, align 8
  br label %57

57:                                               ; preds = %54, %52, %13
  %58 = load ptr, ptr %3, align 8
  ret ptr %58
}