; Function Attrs: nounwind uwtable
define internal fastcc noalias ptr @value_type_tostr(ptr noundef readonly %0, i1 noundef zeroext %1) unnamed_addr #2 {
  %.not = icmp ne ptr %0, null
  %brmerge.not = and i1 %.not, %1
  br i1 %brmerge.not, label %5, label %3

3:                                                ; preds = %2
  %4 = tail call noalias ptr @wmem_strdup(ptr noundef null, ptr noundef nonnull @.str.96) #11
  br label %30

5:                                                ; preds = %2
  %6 = load i32, ptr %0, align 8
  switch i32 %6, label %26 [
    i32 2, label %7
    i32 3, label %28
    i32 1, label %13
    i32 8, label %19
  ]

7:                                                ; preds = %5
  %8 = getelementptr inbounds nuw i8, ptr %0, i64 8
  %9 = load ptr, ptr %8, align 8
  %10 = getelementptr inbounds nuw i8, ptr %9, i64 16
  %11 = load i32, ptr %10, align 8
  %12 = tail call ptr @ftype_name(i32 noundef %11) #11
  br label %28

13:                                               ; preds = %5
  %14 = getelementptr inbounds nuw i8, ptr %0, i64 8
  %15 = load ptr, ptr %14, align 8
  %16 = load ptr, ptr %15, align 8
  %17 = load ptr, ptr %16, align 8
  %18 = tail call ptr @fvalue_type_name(ptr noundef %17) #11
  br label %28

19:                                               ; preds = %5
  %20 = getelementptr inbounds nuw i8, ptr %0, i64 8
  %21 = load ptr, ptr %20, align 8
  %22 = getelementptr inbounds nuw i8, ptr %21, i64 24
  %23 = load i32, ptr %22, align 8
  %.not11 = icmp eq i32 %23, 0
  br i1 %.not11, label %28, label %24

24:                                               ; preds = %19
  %25 = tail call ptr @ftype_name(i32 noundef %23) #11
  br label %28

26:                                               ; preds = %5
  %27 = tail call noalias ptr @wmem_strdup(ptr noundef null, ptr noundef nonnull @.str.96) #11
  br label %30

28:                                               ; preds = %19, %5, %24, %13, %7
  %.0 = phi ptr [ %25, %24 ], [ %18, %13 ], [ %12, %7 ], [ @.str.97, %5 ], [ @.str.98, %19 ]
  %29 = tail call noalias ptr (ptr, ptr, ...) @wmem_strdup_printf(ptr noundef null, ptr noundef nonnull @.str.99, ptr noundef %.0) #11
  br label %30

30:                                               ; preds = %28, %26, %3
  %.08 = phi ptr [ %27, %26 ], [ %29, %28 ], [ %4, %3 ]
  ret ptr %.08
}